; Function Attrs: mustprogress uwtable
define internal void @_ZNK9grpc_core11json_detail10AutoLoaderINS_12_GLOBAL__N_116PriorityLbConfig15PriorityLbChildEE8LoadIntoERKNS_12experimental4JsonERKNS_8JsonArgsEPvPNS_16ValidationErrorsE(ptr nocapture nonnull readnone align 8 %this, ptr noundef nonnull align 8 dereferenceable(56) %json, ptr noundef nonnull align 8 dereferenceable(8) %args, ptr noundef %dst, ptr noundef %errors) unnamed_addr #3 align 2 personality ptr @__gxx_personality_v0 {
entry:
  %0 = load atomic i8, ptr @_ZGVZN9grpc_core12_GLOBAL__N_116PriorityLbConfig15PriorityLbChild10JsonLoaderERKNS_8JsonArgsEE6loader acquire, align 8
  %guard.uninitialized.i = icmp eq i8 %0, 0
  br i1 %guard.uninitialized.i, label %init.check.i, label %_ZN9grpc_core12_GLOBAL__N_116PriorityLbConfig15PriorityLbChild10JsonLoaderERKNS_8JsonArgsE.exit, !prof !7

init.check.i:                                     ; preds = %entry
  %1 = tail call i32 @__cxa_guard_acquire(ptr nonnull @_ZGVZN9grpc_core12_GLOBAL__N_116PriorityLbConfig15PriorityLbChild10JsonLoaderERKNS_8JsonArgsEE6loader) #26
  %tobool.not.i = icmp eq i32 %1, 0
  br i1 %tobool.not.i, label %_ZN9grpc_core12_GLOBAL__N_116PriorityLbConfig15PriorityLbChild10JsonLoaderERKNS_8JsonArgsE.exit, label %invoke.cont2.i

invoke.cont2.i:                                   ; preds = %init.check.i
  %call.i1.i = invoke noalias noundef nonnull dereferenceable(40) ptr @_Znwm(i64 noundef 40) #25
          to label %invoke.cont3.i unwind label %lpad.i

invoke.cont3.i:                                   ; preds = %invoke.cont2.i
  store ptr getelementptr inbounds ({ [3 x ptr] }, ptr @_ZTVN9grpc_core11json_detail24FinishedJsonObjectLoaderINS_12_GLOBAL__N_116PriorityLbConfig15PriorityLbChildELm1EvEE, i64 0, i32 0, i64 2), ptr %call.i1.i, align 8
  %elements_.i.i.i = getelementptr inbounds i8, ptr %call.i1.i, i64 8
  store ptr @_ZN9grpc_core19NoDestructSingletonINS_11json_detail10AutoLoaderIbEEE6value_E, ptr %elements_.i.i.i, align 8
  %ref.tmp.sroa.2.0.elements_.i.i.sroa_idx.i = getelementptr inbounds i8, ptr %call.i1.i, i64 16
  store i16 8, ptr %ref.tmp.sroa.2.0.elements_.i.i.sroa_idx.i, align 8
  %ref.tmp.sroa.3.0.elements_.i.i.sroa_idx.i = getelementptr inbounds i8, ptr %call.i1.i, i64 18
  store i8 1, ptr %ref.tmp.sroa.3.0.elements_.i.i.sroa_idx.i, align 2
  %ref.tmp.sroa.41.0.elements_.i.i.sroa_idx.i = getelementptr inbounds i8, ptr %call.i1.i, i64 24
  store ptr @.str.10, ptr %ref.tmp.sroa.41.0.elements_.i.i.sroa_idx.i, align 8
  %ref.tmp.sroa.5.0.elements_.i.i.sroa_idx.i = getelementptr inbounds i8, ptr %call.i1.i, i64 32
  store ptr null, ptr %ref.tmp.sroa.5.0.elements_.i.i.sroa_idx.i, align 8
  store ptr %call.i1.i, ptr @_ZZN9grpc_core12_GLOBAL__N_116PriorityLbConfig15PriorityLbChild10JsonLoaderERKNS_8JsonArgsEE6loader, align 8
  tail call void @__cxa_guard_release(ptr nonnull @_ZGVZN9grpc_core12_GLOBAL__N_116PriorityLbConfig15PriorityLbChild10JsonLoaderERKNS_8JsonArgsEE6loader) #26
  br label %_ZN9grpc_core12_GLOBAL__N_116PriorityLbConfig15PriorityLbChild10JsonLoaderERKNS_8JsonArgsE.exit

lpad.i:                                           ; preds = %invoke.cont2.i
  %2 = landingpad { ptr, i32 }
          cleanup
  tail call void @__cxa_guard_abort(ptr nonnull @_ZGVZN9grpc_core12_GLOBAL__N_116PriorityLbConfig15PriorityLbChild10JsonLoaderERKNS_8JsonArgsEE6loader) #26
  resume { ptr, i32 } %2

_ZN9grpc_core12_GLOBAL__N_116PriorityLbConfig15PriorityLbChild10JsonLoaderERKNS_8JsonArgsE.exit: ; preds = %entry, %init.check.i, %invoke.cont3.i
  %3 = load ptr, ptr @_ZZN9grpc_core12_GLOBAL__N_116PriorityLbConfig15PriorityLbChild10JsonLoaderERKNS_8JsonArgsEE6loader, align 8
  %vtable = load ptr, ptr %3, align 8
  %4 = load ptr, ptr %vtable, align 8
  tail call void %4(ptr noundef nonnull align 8 dereferenceable(8) %3, ptr noundef nonnull align 8 dereferenceable(56) %json, ptr noundef nonnull align 8 dereferenceable(8) %args, ptr noundef %dst, ptr noundef %errors)
  ret void
}